; Function Attrs: cold nounwind optsize uwtable
define range(i32 -2147483648, 1) i32 @ff_rv34_decode_init(ptr noundef %0) local_unnamed_addr #2 {
  %2 = getelementptr inbounds nuw i8, ptr %0, i64 32
  %3 = load ptr, ptr %2, align 8, !tbaa !18
  %4 = tail call i32 @ff_mpv_decode_init(ptr noundef %3, ptr noundef %0) #15
  %5 = icmp slt i32 %4, 0
  br i1 %5, label %19, label %6

6:                                                ; preds = %1
  %7 = getelementptr inbounds nuw i8, ptr %3, i64 496
  store i32 2, ptr %7, align 8, !tbaa !36
  %8 = getelementptr inbounds nuw i8, ptr %0, i64 136
  store i32 0, ptr %8, align 8, !tbaa !57
  %9 = getelementptr inbounds nuw i8, ptr %0, i64 172
  store i32 1, ptr %9, align 4, !tbaa !58
  %10 = getelementptr inbounds nuw i8, ptr %3, i64 4104
  store i32 0, ptr %10, align 8, !tbaa !59
  %11 = tail call i32 @ff_mpv_common_init(ptr noundef %3) #15
  %12 = icmp slt i32 %11, 0
  br i1 %12, label %19, label %13

13:                                               ; preds = %6
  %14 = getelementptr inbounds nuw i8, ptr %3, i64 6040
  tail call void @ff_h264_pred_init(ptr noundef nonnull %14, i32 noundef 69, i32 noundef 8, i32 noundef 1) #15
  %15 = tail call fastcc i32 @rv34_decoder_alloc(ptr noundef nonnull %3)
  %16 = icmp slt i32 %15, 0
  br i1 %16, label %19, label %17

17:                                               ; preds = %13
  %18 = tail call i32 @pthread_once(ptr noundef nonnull @ff_rv34_decode_init.init_static_once, ptr noundef nonnull @rv34_init_tables) #15
  br label %19

19:                                               ; preds = %13, %6, %1, %17
  %.0 = phi i32 [ 0, %17 ], [ %4, %1 ], [ %11, %6 ], [ %15, %13 ]
  ret i32 %.0
}